target datalayout = "e-m:e-p270:32:32-p271:32:32-p272:64:64-i64:64-i128:128-f80:128-n8:16:32:64-S128"
target triple = "x86_64-pc-linux-gnu"

%struct.asn1_object_st = type { ptr, ptr, i32, i32, ptr, i32 }

; Function Attrs: nounwind uwtable
define hidden i32 @i2d_ASN1_OBJECT(ptr noundef %0, ptr noundef %1) #0 {
  %3 = alloca i32, align 4
  %4 = alloca ptr, align 8
  %5 = alloca ptr, align 8
  %6 = alloca ptr, align 8
  %7 = alloca i32, align 4
  %8 = alloca i32, align 4
  store ptr %0, ptr %4, align 8, !tbaa !6
  store ptr %1, ptr %5, align 8, !tbaa !11
  call void @llvm.lifetime.start.p0(i64 8, ptr %6) #7
  call void @llvm.lifetime.start.p0(i64 4, ptr %7) #7
  %9 = load ptr, ptr %4, align 8, !tbaa !6
  %10 = icmp eq ptr %9, null
  br i1 %10, label %16, label %11

11:                                               ; preds = %2
  %12 = load ptr, ptr %4, align 8, !tbaa !6
  %13 = getelementptr inbounds nuw %struct.asn1_object_st, ptr %12, i32 0, i32 4
  %14 = load ptr, ptr %13, align 8, !tbaa !13
  %15 = icmp eq ptr %14, null
  br i1 %15, label %16, label %17

16:                                               ; preds = %11, %2
  store i32 0, ptr %3, align 4
  store i32 1, ptr %8, align 4
  br label %49

17:                                               ; preds = %11
  %18 = load ptr, ptr %4, align 8, !tbaa !6
  %19 = getelementptr inbounds nuw %struct.asn1_object_st, ptr %18, i32 0, i32 3
  %20 = load i32, ptr %19, align 4, !tbaa !17
  %21 = call i32 @ASN1_object_size(i32 noundef 0, i32 noundef %20, i32 noundef 6)
  store i32 %21, ptr %7, align 4, !tbaa !18
  %22 = load ptr, ptr %5, align 8, !tbaa !11
  %23 = icmp eq ptr %22, null
  br i1 %23, label %24, label %26

24:                                               ; preds = %17
  %25 = load i32, ptr %7, align 4, !tbaa !18
  store i32 %25, ptr %3, align 4
  store i32 1, ptr %8, align 4
  br label %49

26:                                               ; preds = %17
  %27 = load ptr, ptr %5, align 8, !tbaa !11
  %28 = load ptr, ptr %27, align 8, !tbaa !19
  store ptr %28, ptr %6, align 8, !tbaa !19
  %29 = load ptr, ptr %4, align 8, !tbaa !6
  %30 = getelementptr inbounds nuw %struct.asn1_object_st, ptr %29, i32 0, i32 3
  %31 = load i32, ptr %30, align 4, !tbaa !17
  call void @ASN1_put_object(ptr noundef %6, i32 noundef 0, i32 noundef %31, i32 noundef 6, i32 noundef 0)
  %32 = load ptr, ptr %6, align 8, !tbaa !19
  %33 = load ptr, ptr %4, align 8, !tbaa !6
  %34 = getelementptr inbounds nuw %struct.asn1_object_st, ptr %33, i32 0, i32 4
  %35 = load ptr, ptr %34, align 8, !tbaa !13
  %36 = load ptr, ptr %4, align 8, !tbaa !6
  %37 = getelementptr inbounds nuw %struct.asn1_object_st, ptr %36, i32 0, i32 3
  %38 = load i32, ptr %37, align 4, !tbaa !17
  %39 = sext i32 %38 to i64
  call void @llvm.memcpy.p0.p0.i64(ptr align 1 %32, ptr align 1 %35, i64 %39, i1 false)
  %40 = load ptr, ptr %4, align 8, !tbaa !6
  %41 = getelementptr inbounds nuw %struct.asn1_object_st, ptr %40, i32 0, i32 3
  %42 = load i32, ptr %41, align 4, !tbaa !17
  %43 = load ptr, ptr %6, align 8, !tbaa !19
  %44 = sext i32 %42 to i64
  %45 = getelementptr inbounds i8, ptr %43, i64 %44
  store ptr %45, ptr %6, align 8, !tbaa !19
  %46 = load ptr, ptr %6, align 8, !tbaa !19
  %47 = load ptr, ptr %5, align 8, !tbaa !11
  store ptr %46, ptr %47, align 8, !tbaa !19
  %48 = load i32, ptr %7, align 4, !tbaa !18
  store i32 %48, ptr %3, align 4
  store i32 1, ptr %8, align 4
  br label %49

49:                                               ; preds = %26, %24, %16
  call void @llvm.lifetime.end.p0(i64 4, ptr %7) #7
  call void @llvm.lifetime.end.p0(i64 8, ptr %6) #7
  %50 = load i32, ptr %3, align 4
  ret i32 %50
}