; Function Attrs: nounwind uwtable
define hidden i32 @i2d_ASN1_OBJECT(ptr noundef readonly captures(address_is_null) %0, ptr noundef captures(address_is_null) %1) local_unnamed_addr #0 {
  %3 = alloca ptr, align 8
  call void @llvm.lifetime.start.p0(i64 8, ptr nonnull %3) #9
  %4 = icmp eq ptr %0, null
  br i1 %4, label %25, label %5

5:                                                ; preds = %2
  %6 = getelementptr inbounds nuw i8, ptr %0, i64 24
  %7 = load ptr, ptr %6, align 8, !tbaa !6
  %8 = icmp eq ptr %7, null
  br i1 %8, label %25, label %9

9:                                                ; preds = %5
  %10 = getelementptr inbounds nuw i8, ptr %0, i64 20
  %11 = load i32, ptr %10, align 4, !tbaa !13
  %12 = tail call i32 @ASN1_object_size(i32 noundef 0, i32 noundef %11, i32 noundef 6) #9
  %13 = icmp eq ptr %1, null
  br i1 %13, label %25, label %14

14:                                               ; preds = %9
  %15 = load ptr, ptr %1, align 8, !tbaa !14
  store ptr %15, ptr %3, align 8, !tbaa !14
  %16 = load i32, ptr %10, align 4, !tbaa !13
  call void @ASN1_put_object(ptr noundef nonnull %3, i32 noundef 0, i32 noundef %16, i32 noundef 6, i32 noundef 0) #9
  %17 = load ptr, ptr %3, align 8, !tbaa !14
  %18 = load ptr, ptr %6, align 8, !tbaa !6
  %19 = load i32, ptr %10, align 4, !tbaa !13
  %20 = sext i32 %19 to i64
  call void @llvm.memcpy.p0.p0.i64(ptr align 1 %17, ptr align 1 %18, i64 %20, i1 false)
  %21 = load i32, ptr %10, align 4, !tbaa !13
  %22 = load ptr, ptr %3, align 8, !tbaa !14
  %23 = sext i32 %21 to i64
  %24 = getelementptr inbounds i8, ptr %22, i64 %23
  store ptr %24, ptr %1, align 8, !tbaa !14
  br label %25

25:                                               ; preds = %9, %2, %5, %14
  %.0 = phi i32 [ %12, %14 ], [ 0, %5 ], [ 0, %2 ], [ %12, %9 ]
  call void @llvm.lifetime.end.p0(i64 8, ptr nonnull %3) #9
  ret i32 %.0
}